; Function Attrs: mustprogress uwtable
define dso_local noundef zeroext i1 @_ZN5cmsys11SystemTools17GetLineFromStreamERSiRNSt7__cxx1112basic_stringIcSt11char_traitsIcESaIcEEEPbm(ptr noundef nonnull align 8 dereferenceable(16) %0, ptr noundef nonnull align 8 dereferenceable(32) %1, ptr noundef writeonly %2, i64 noundef %3) local_unnamed_addr #6 align 2 {
  %5 = getelementptr inbounds nuw i8, ptr %1, i64 8
  %6 = load i64, ptr %5, align 8, !tbaa !18
  %7 = tail call noundef nonnull align 8 dereferenceable(32) ptr @_ZNSt7__cxx1112basic_stringIcSt11char_traitsIcESaIcEE10_M_replaceEmmPKcm(ptr noundef nonnull align 8 dereferenceable(32) %1, i64 noundef 0, i64 noundef %6, ptr noundef nonnull @.str.2, i64 noundef 0)
  %8 = load ptr, ptr %0, align 8, !tbaa !99
  %9 = getelementptr i8, ptr %8, i64 -24
  %10 = load i64, ptr %9, align 8
  %11 = getelementptr inbounds i8, ptr %0, i64 %10
  %12 = getelementptr inbounds nuw i8, ptr %11, i64 32
  %13 = load i32, ptr %12, align 8, !tbaa !101
  %14 = and i32 %13, 5
  %.not26 = icmp eq i32 %14, 0
  br i1 %.not26, label %16, label %15

15:                                               ; preds = %4
  %.not24 = icmp eq ptr %2, null
  br i1 %.not24, label %63, label %.sink.split

16:                                               ; preds = %4
  %17 = getelementptr inbounds nuw i8, ptr %11, i64 240
  %18 = load ptr, ptr %17, align 8, !tbaa !115
  %.not.i.i.i = icmp eq ptr %18, null
  br i1 %.not.i.i.i, label %19, label %_ZSt13__check_facetISt5ctypeIcEERKT_PS3_.exit.i.i

19:                                               ; preds = %16
  tail call void @_ZSt16__throw_bad_castv() #40
  unreachable

_ZSt13__check_facetISt5ctypeIcEERKT_PS3_.exit.i.i: ; preds = %16
  %20 = getelementptr inbounds nuw i8, ptr %18, i64 56
  %21 = load i8, ptr %20, align 8, !tbaa !123
  %.not.i1.i.i = icmp eq i8 %21, 0
  br i1 %.not.i1.i.i, label %25, label %22

22:                                               ; preds = %_ZSt13__check_facetISt5ctypeIcEERKT_PS3_.exit.i.i
  %23 = getelementptr inbounds nuw i8, ptr %18, i64 67
  %24 = load i8, ptr %23, align 1, !tbaa !20
  br label %_ZSt7getlineIcSt11char_traitsIcESaIcEERSt13basic_istreamIT_T0_ES7_RNSt7__cxx1112basic_stringIS4_S5_T1_EE.exit

25:                                               ; preds = %_ZSt13__check_facetISt5ctypeIcEERKT_PS3_.exit.i.i
  tail call void @_ZNKSt5ctypeIcE13_M_widen_initEv(ptr noundef nonnull align 8 dereferenceable(570) %18)
  %26 = load ptr, ptr %18, align 8, !tbaa !99
  %27 = getelementptr inbounds nuw i8, ptr %26, i64 48
  %28 = load ptr, ptr %27, align 8
  %29 = tail call noundef signext i8 %28(ptr noundef nonnull align 8 dereferenceable(570) %18, i8 noundef signext 10)
  br label %_ZSt7getlineIcSt11char_traitsIcESaIcEERSt13basic_istreamIT_T0_ES7_RNSt7__cxx1112basic_stringIS4_S5_T1_EE.exit

_ZSt7getlineIcSt11char_traitsIcESaIcEERSt13basic_istreamIT_T0_ES7_RNSt7__cxx1112basic_stringIS4_S5_T1_EE.exit: ; preds = %22, %25
  %.0.i.i.i = phi i8 [ %24, %22 ], [ %29, %25 ]
  %30 = tail call noundef nonnull align 8 dereferenceable(16) ptr @_ZSt7getlineIcSt11char_traitsIcESaIcEERSt13basic_istreamIT_T0_ES7_RNSt7__cxx1112basic_stringIS4_S5_T1_EES4_(ptr noundef nonnull align 8 dereferenceable(16) %0, ptr noundef nonnull align 8 dereferenceable(32) %1, i8 noundef signext %.0.i.i.i)
  %31 = load i64, ptr %5, align 8, !tbaa !18
  %32 = icmp eq i64 %31, 0
  br i1 %32, label %.thread, label %40

.thread:                                          ; preds = %_ZSt7getlineIcSt11char_traitsIcESaIcEERSt13basic_istreamIT_T0_ES7_RNSt7__cxx1112basic_stringIS4_S5_T1_EE.exit
  %33 = load ptr, ptr %0, align 8, !tbaa !99
  %34 = getelementptr i8, ptr %33, i64 -24
  %35 = load i64, ptr %34, align 8
  %36 = getelementptr inbounds i8, ptr %0, i64 %35
  %37 = getelementptr inbounds nuw i8, ptr %36, i64 32
  %38 = load i32, ptr %37, align 8, !tbaa !101
  %39 = and i32 %38, 2
  %.not27 = icmp eq i32 %39, 0
  br label %52

40:                                               ; preds = %_ZSt7getlineIcSt11char_traitsIcESaIcEERSt13basic_istreamIT_T0_ES7_RNSt7__cxx1112basic_stringIS4_S5_T1_EE.exit
  %41 = load ptr, ptr %1, align 8, !tbaa !21
  %42 = getelementptr i8, ptr %41, i64 %31
  %43 = getelementptr i8, ptr %42, i64 -1
  %44 = load i8, ptr %43, align 1, !tbaa !20
  %45 = icmp eq i8 %44, 13
  br i1 %45, label %46, label %48

46:                                               ; preds = %40
  %47 = add i64 %31, -1
  tail call void @_ZNSt7__cxx1112basic_stringIcSt11char_traitsIcESaIcEE6resizeEmc(ptr noundef nonnull align 8 dereferenceable(32) %1, i64 noundef %47, i8 noundef signext 0)
  %.pre = load i64, ptr %5, align 8
  br label %48

48:                                               ; preds = %46, %40
  %49 = phi i64 [ %.pre, %46 ], [ %31, %40 ]
  %.not = icmp ne i64 %3, -1
  %50 = icmp ugt i64 %49, %3
  %or.cond = select i1 %.not, i1 %50, i1 false
  br i1 %or.cond, label %51, label %52

51:                                               ; preds = %48
  tail call void @_ZNSt7__cxx1112basic_stringIcSt11char_traitsIcESaIcEE6resizeEmc(ptr noundef nonnull align 8 dereferenceable(32) %1, i64 noundef %3, i8 noundef signext 0)
  br label %52

52:                                               ; preds = %.thread, %48, %51
  %53 = phi i1 [ %.not27, %.thread ], [ true, %48 ], [ true, %51 ]
  %.not23 = icmp eq ptr %2, null
  br i1 %.not23, label %63, label %54

54:                                               ; preds = %52
  %55 = load ptr, ptr %0, align 8, !tbaa !99
  %56 = getelementptr i8, ptr %55, i64 -24
  %57 = load i64, ptr %56, align 8
  %58 = getelementptr inbounds i8, ptr %0, i64 %57
  %59 = getelementptr inbounds nuw i8, ptr %58, i64 32
  %60 = load i32, ptr %59, align 8, !tbaa !101
  %61 = and i32 %60, 2
  %.not28 = icmp eq i32 %61, 0
  %62 = zext i1 %.not28 to i8
  br label %.sink.split

.sink.split:                                      ; preds = %15, %54
  %.sink = phi i8 [ %62, %54 ], [ 0, %15 ]
  %.0.ph = phi i1 [ %53, %54 ], [ false, %15 ]
  store i8 %.sink, ptr %2, align 1, !tbaa !129
  br label %63

63:                                               ; preds = %.sink.split, %52, %15
  %.0 = phi i1 [ false, %15 ], [ %53, %52 ], [ %.0.ph, %.sink.split ]
  ret i1 %.0
}